; Function Attrs: nofree norecurse nosync nounwind memory(readwrite, inaccessiblemem: none) uwtable
define void @Gia_Iso3Init(ptr noundef readonly captures(none) %0) local_unnamed_addr #0 {
  %2 = getelementptr inbounds nuw i8, ptr %0, i64 24
  %3 = load i32, ptr %2, align 8, !tbaa !3
  %4 = icmp sgt i32 %3, 0
  br i1 %4, label %.lr.ph, label %.critedge

.lr.ph:                                           ; preds = %1
  %5 = getelementptr i8, ptr %0, i64 32
  %.val = load ptr, ptr %5, align 8, !tbaa !28
  %.not = icmp eq ptr %.val, null
  br i1 %.not, label %.critedge, label %.lr.ph.split.preheader

.lr.ph.split.preheader:                           ; preds = %.lr.ph
  %wide.trip.count = zext nneg i32 %3 to i64
  br label %.lr.ph.split

.lr.ph.split:                                     ; preds = %.lr.ph.split.preheader, %Gia_Iso3Node.exit
  %indvars.iv = phi i64 [ 0, %.lr.ph.split.preheader ], [ %indvars.iv.next, %Gia_Iso3Node.exit ]
  %6 = getelementptr inbounds nuw %struct.Gia_Obj_t_, ptr %.val, i64 %indvars.iv
  %.val7 = load i64, ptr %6, align 4
  %7 = and i64 %.val7, 2147483648
  %.not.i.i = icmp eq i64 %7, 0
  %8 = and i64 %.val7, 536870911
  %9 = icmp ne i64 %8, 536870911
  %narrow.i.i = and i1 %.not.i.i, %9
  br i1 %narrow.i.i, label %10, label %18

10:                                               ; preds = %.lr.ph.split
  %11 = lshr i64 %.val7, 29
  %12 = and i64 %11, 1
  %13 = lshr i64 %.val7, 61
  %14 = and i64 %13, 1
  %15 = add nuw nsw i64 %12, %14
  %16 = getelementptr inbounds nuw [6 x i32], ptr @Iso_Nodes, i64 0, i64 %15
  %17 = load i32, ptr %16, align 4, !tbaa !29
  br label %Gia_Iso3Node.exit

18:                                               ; preds = %.lr.ph.split
  %19 = and i64 %.val7, 2684354559
  %narrow.i11.not.i = icmp eq i64 %19, 2684354559
  br i1 %narrow.i11.not.i, label %Gia_Iso3Node.exit, label %20

20:                                               ; preds = %18
  %.not.i12.i = icmp ne i64 %7, 0
  %narrow.i13.i = and i1 %.not.i12.i, %9
  %..i = select i1 %narrow.i13.i, i32 -567204165, i32 -558112784
  br label %Gia_Iso3Node.exit

Gia_Iso3Node.exit:                                ; preds = %10, %18, %20
  %.0.i = phi i32 [ %17, %10 ], [ -220502792, %18 ], [ %..i, %20 ]
  %21 = getelementptr inbounds nuw i8, ptr %6, i64 8
  store i32 %.0.i, ptr %21, align 4, !tbaa !30
  %indvars.iv.next = add nuw nsw i64 %indvars.iv, 1
  %exitcond.not = icmp eq i64 %indvars.iv.next, %wide.trip.count
  br i1 %exitcond.not, label %.critedge, label %.lr.ph.split, !llvm.loop !32

.critedge:                                        ; preds = %Gia_Iso3Node.exit, %.lr.ph, %1
  ret void
}